; Function Attrs: mustprogress uwtable
define void @_ZNK8proxygen11HTTPSession8describeERSo(ptr noundef nonnull align 8 dereferenceable(2504) %this, ptr noundef nonnull align 8 dereferenceable(8) %os) unnamed_addr #3 align 2 {
entry:
  %call = tail call noundef nonnull align 8 dereferenceable(8) ptr @_ZStlsISt11char_traitsIcEERSt13basic_ostreamIcT_ES5_PKc(ptr noundef nonnull align 8 dereferenceable(8) %os, ptr noundef nonnull @.str.13)
  %call_.i.i = getelementptr inbounds i8, ptr %this, i64 992
  %0 = load ptr, ptr %call_.i.i, align 8
  %vtable = load ptr, ptr %0, align 8
  %vfn = getelementptr inbounds i8, ptr %vtable, i64 24
  %1 = load ptr, ptr %vfn, align 8
  %call3 = tail call noundef zeroext i8 %1(ptr noundef nonnull align 8 dereferenceable(8) %0)
  %call4 = tail call noundef nonnull align 8 dereferenceable(32) ptr @_ZN8proxygen22getCodecProtocolStringB5cxx11ENS_13CodecProtocolE(i8 noundef zeroext %call3)
  %call5 = tail call noundef nonnull align 8 dereferenceable(8) ptr @_ZStlsIcSt11char_traitsIcESaIcEERSt13basic_ostreamIT_T0_ES7_RKNSt7__cxx1112basic_stringIS4_S5_T1_EE(ptr noundef nonnull align 8 dereferenceable(8) %call, ptr noundef nonnull align 8 dereferenceable(32) %call4)
  %2 = load ptr, ptr %call_.i.i, align 8
  %vtable.i = load ptr, ptr %2, align 8
  %vfn.i = getelementptr inbounds i8, ptr %vtable.i, i64 40
  %3 = load ptr, ptr %vfn.i, align 8
  %call2.i = tail call noundef zeroext i8 %3(ptr noundef nonnull align 8 dereferenceable(8) %2)
  %cmp.i = icmp eq i8 %call2.i, 0
  br i1 %cmp.i, label %if.then, label %if.else

if.then:                                          ; preds = %entry
  %call7 = tail call noundef nonnull align 8 dereferenceable(8) ptr @_ZStlsISt11char_traitsIcEERSt13basic_ostreamIcT_ES5_PKc(ptr noundef nonnull align 8 dereferenceable(8) %os, ptr noundef nonnull @.str.14)
  %4 = load ptr, ptr %call_.i.i, align 8
  %vtable10 = load ptr, ptr %4, align 8
  %vfn11 = getelementptr inbounds i8, ptr %vtable10, i64 32
  %5 = load ptr, ptr %vfn11, align 8
  %call12 = tail call noundef nonnull align 8 dereferenceable(32) ptr %5(ptr noundef nonnull align 8 dereferenceable(8) %4)
  %call13 = tail call noundef nonnull align 8 dereferenceable(8) ptr @_ZStlsIcSt11char_traitsIcESaIcEERSt13basic_ostreamIT_T0_ES7_RKNSt7__cxx1112basic_stringIS4_S5_T1_EE(ptr noundef nonnull align 8 dereferenceable(8) %call7, ptr noundef nonnull align 8 dereferenceable(32) %call12)
  %call14 = tail call noundef nonnull align 8 dereferenceable(8) ptr @_ZStlsISt11char_traitsIcEERSt13basic_ostreamIcT_ES5_PKc(ptr noundef nonnull align 8 dereferenceable(8) %call13, ptr noundef nonnull @.str.15)
  br label %if.end

if.else:                                          ; preds = %entry
  %call25 = tail call noundef nonnull align 8 dereferenceable(8) ptr @_ZStlsISt11char_traitsIcEERSt13basic_ostreamIcT_ES5_PKc(ptr noundef nonnull align 8 dereferenceable(8) %os, ptr noundef nonnull @.str.18)
  br label %if.end

if.end:                                           ; preds = %if.else, %if.then
  %.sink5 = phi i64 [ 328, %if.else ], [ 48, %if.then ]
  %call25.sink = phi ptr [ %call25, %if.else ], [ %call14, %if.then ]
  %.sink = phi i64 [ 48, %if.else ], [ 328, %if.then ]
  %.str.19.sink = phi ptr [ @.str.19, %if.else ], [ @.str.17, %if.then ]
  %vtable26 = load ptr, ptr %this, align 8
  %vfn27 = getelementptr inbounds i8, ptr %vtable26, i64 %.sink5
  %6 = load ptr, ptr %vfn27, align 8
  %call28 = tail call noundef nonnull align 8 dereferenceable(27) ptr %6(ptr noundef nonnull align 8 dereferenceable(2504) %this) #39
  %call29 = tail call noundef nonnull align 8 dereferenceable(8) ptr @_ZN5follylsERSoRKNS_13SocketAddressE(ptr noundef nonnull align 8 dereferenceable(8) %call25.sink, ptr noundef nonnull align 8 dereferenceable(27) %call28)
  %call30 = tail call noundef nonnull align 8 dereferenceable(8) ptr @_ZStlsISt11char_traitsIcEERSt13basic_ostreamIcT_ES5_PKc(ptr noundef nonnull align 8 dereferenceable(8) %call29, ptr noundef nonnull @.str.16)
  %vtable31 = load ptr, ptr %this, align 8
  %vfn32 = getelementptr inbounds i8, ptr %vtable31, i64 %.sink
  %7 = load ptr, ptr %vfn32, align 8
  %call33 = tail call noundef nonnull align 8 dereferenceable(27) ptr %7(ptr noundef nonnull align 8 dereferenceable(2504) %this) #39
  %call34 = tail call noundef nonnull align 8 dereferenceable(8) ptr @_ZN5follylsERSoRKNS_13SocketAddressE(ptr noundef nonnull align 8 dereferenceable(8) %call30, ptr noundef nonnull align 8 dereferenceable(27) %call33)
  %call35 = tail call noundef nonnull align 8 dereferenceable(8) ptr @_ZStlsISt11char_traitsIcEERSt13basic_ostreamIcT_ES5_PKc(ptr noundef nonnull align 8 dereferenceable(8) %call34, ptr noundef nonnull %.str.19.sink)
  ret void
}